target datalayout = "e-m:e-p270:32:32-p271:32:32-p272:64:64-i64:64-i128:128-f80:128-n8:16:32:64-S128"
target triple = "x86_64-pc-linux-gnu"

%struct._object = type { %union.anon, ptr }
%union.anon = type { i64 }
%struct.PyVarObject = type { %struct._object, i64 }
%struct.anon = type { i32, i32 }
%struct.PySocketSockObject = type { %struct._object, i32, i32, i32, i32, ptr, i64, ptr }
%struct.PyBytesObject = type { %struct.PyVarObject, i64, [1 x i8] }
%struct.sock_recv = type { ptr, i64, i32, i64 }

@PyExc_ValueError = external global ptr, align 8
@.str.605 = private unnamed_addr constant [9 x i8] c"n|i:recv\00", align 1
@.str.606 = private unnamed_addr constant [28 x i8] c"negative buffersize in recv\00", align 1

; Function Attrs: alwaysinline nounwind uwtable
define internal i32 @_Py_IsImmortal(ptr noundef %0) #8 {
  %2 = alloca ptr, align 8
  store ptr %0, ptr %2, align 8, !tbaa !3
  %3 = load ptr, ptr %2, align 8, !tbaa !3
  %4 = getelementptr inbounds nuw %struct._object, ptr %3, i32 0, i32 0
  %5 = getelementptr inbounds nuw %struct.anon, ptr %4, i32 0, i32 0
  %6 = load i32, ptr %5, align 8, !tbaa !35
  %7 = icmp slt i32 %6, 0
  %8 = zext i1 %7 to i32
  ret i32 %8
}

; Function Attrs: nounwind uwtable
define internal i32 @sock_call(ptr noundef %0, i32 noundef %1, ptr noundef %2, ptr noundef %3) #0 {
  %5 = alloca ptr, align 8
  %6 = alloca i32, align 4
  %7 = alloca ptr, align 8
  %8 = alloca ptr, align 8
  store ptr %0, ptr %5, align 8, !tbaa !8
  store i32 %1, ptr %6, align 4, !tbaa !15
  store ptr %2, ptr %7, align 8, !tbaa !8
  store ptr %3, ptr %8, align 8, !tbaa !8
  %9 = load ptr, ptr %5, align 8, !tbaa !8
  %10 = load i32, ptr %6, align 4, !tbaa !15
  %11 = load ptr, ptr %7, align 8, !tbaa !8
  %12 = load ptr, ptr %8, align 8, !tbaa !8
  %13 = load ptr, ptr %5, align 8, !tbaa !8
  %14 = getelementptr inbounds nuw %struct.PySocketSockObject, ptr %13, i32 0, i32 6
  %15 = load i64, ptr %14, align 8, !tbaa !111
  %16 = call i32 @sock_call_ex(ptr noundef %9, i32 noundef %10, ptr noundef %11, ptr noundef %12, i32 noundef 0, ptr noundef null, i64 noundef %15)
  ret i32 %16
}

; Function Attrs: alwaysinline nounwind uwtable
define internal void @Py_DECREF(ptr noundef %0) #8 {
  %2 = alloca ptr, align 8
  store ptr %0, ptr %2, align 8, !tbaa !3
  %3 = load ptr, ptr %2, align 8, !tbaa !3
  %4 = call i32 @_Py_IsImmortal(ptr noundef %3)
  %5 = icmp ne i32 %4, 0
  br i1 %5, label %6, label %7

6:                                                ; preds = %1
  br label %16

7:                                                ; preds = %1
  %8 = load ptr, ptr %2, align 8, !tbaa !3
  %9 = getelementptr inbounds nuw %struct._object, ptr %8, i32 0, i32 0
  %10 = getelementptr inbounds nuw %struct.anon, ptr %9, i32 0, i32 0
  %11 = load i32, ptr %10, align 8, !tbaa !35
  %12 = add i32 %11, -1
  store i32 %12, ptr %10, align 8, !tbaa !35
  %13 = icmp eq i32 %12, 0
  br i1 %13, label %14, label %16

14:                                               ; preds = %7
  %15 = load ptr, ptr %2, align 8, !tbaa !3
  call void @_Py_Dealloc(ptr noundef %15)
  br label %16

16:                                               ; preds = %6, %14, %7
  ret void
}

; Function Attrs: nounwind uwtable
define internal i64 @sock_recv_guts(ptr noundef %0, ptr noundef %1, i64 noundef %2, i32 noundef %3) #0 {
  %5 = alloca i64, align 8
  %6 = alloca ptr, align 8
  %7 = alloca ptr, align 8
  %8 = alloca i64, align 8
  %9 = alloca i32, align 4
  %10 = alloca %struct.sock_recv, align 8
  %11 = alloca i32, align 4
  store ptr %0, ptr %6, align 8, !tbaa !8
  store ptr %1, ptr %7, align 8, !tbaa !24
  store i64 %2, ptr %8, align 8, !tbaa !52
  store i32 %3, ptr %9, align 4, !tbaa !15
  call void @llvm.lifetime.start.p0(i64 32, ptr %10) #10
  %12 = load i64, ptr %8, align 8, !tbaa !52
  %13 = icmp eq i64 %12, 0
  br i1 %13, label %14, label %15

14:                                               ; preds = %4
  store i64 0, ptr %5, align 8
  store i32 1, ptr %11, align 4
  br label %29

15:                                               ; preds = %4
  %16 = load ptr, ptr %7, align 8, !tbaa !24
  %17 = getelementptr inbounds nuw %struct.sock_recv, ptr %10, i32 0, i32 0
  store ptr %16, ptr %17, align 8, !tbaa !265
  %18 = load i64, ptr %8, align 8, !tbaa !52
  %19 = getelementptr inbounds nuw %struct.sock_recv, ptr %10, i32 0, i32 1
  store i64 %18, ptr %19, align 8, !tbaa !267
  %20 = load i32, ptr %9, align 4, !tbaa !15
  %21 = getelementptr inbounds nuw %struct.sock_recv, ptr %10, i32 0, i32 2
  store i32 %20, ptr %21, align 8, !tbaa !268
  %22 = load ptr, ptr %6, align 8, !tbaa !8
  %23 = call i32 @sock_call(ptr noundef %22, i32 noundef 0, ptr noundef @sock_recv_impl, ptr noundef %10)
  %24 = icmp slt i32 %23, 0
  br i1 %24, label %25, label %26

25:                                               ; preds = %15
  store i64 -1, ptr %5, align 8
  store i32 1, ptr %11, align 4
  br label %29

26:                                               ; preds = %15
  %27 = getelementptr inbounds nuw %struct.sock_recv, ptr %10, i32 0, i32 3
  %28 = load i64, ptr %27, align 8, !tbaa !269
  store i64 %28, ptr %5, align 8
  store i32 1, ptr %11, align 4
  br label %29

29:                                               ; preds = %26, %25, %14
  call void @llvm.lifetime.end.p0(i64 32, ptr %10) #10
  %30 = load i64, ptr %5, align 8
  ret i64 %30
}

; Function Attrs: inlinehint nounwind uwtable
define internal ptr @PyBytes_AS_STRING(ptr noundef %0) #3 {
  %2 = alloca ptr, align 8
  store ptr %0, ptr %2, align 8, !tbaa !3
  %3 = load ptr, ptr %2, align 8, !tbaa !3
  %4 = getelementptr inbounds nuw %struct.PyBytesObject, ptr %3, i32 0, i32 2
  %5 = getelementptr inbounds [1 x i8], ptr %4, i64 0, i64 0
  ret ptr %5
}

; Function Attrs: nounwind uwtable
define internal ptr @sock_recv(ptr noundef %0, ptr noundef %1) #0 {
  %3 = alloca ptr, align 8
  %4 = alloca ptr, align 8
  %5 = alloca ptr, align 8
  %6 = alloca ptr, align 8
  %7 = alloca i64, align 8
  %8 = alloca i64, align 8
  %9 = alloca i32, align 4
  %10 = alloca ptr, align 8
  %11 = alloca i32, align 4
  store ptr %0, ptr %4, align 8, !tbaa !3
  store ptr %1, ptr %5, align 8, !tbaa !3
  call void @llvm.lifetime.start.p0(i64 8, ptr %6) #10
  %12 = load ptr, ptr %4, align 8, !tbaa !3
  store ptr %12, ptr %6, align 8, !tbaa !8
  call void @llvm.lifetime.start.p0(i64 8, ptr %7) #10
  call void @llvm.lifetime.start.p0(i64 8, ptr %8) #10
  call void @llvm.lifetime.start.p0(i64 4, ptr %9) #10
  store i32 0, ptr %9, align 4, !tbaa !15
  call void @llvm.lifetime.start.p0(i64 8, ptr %10) #10
  %13 = load ptr, ptr %5, align 8, !tbaa !3
  %14 = call i32 (ptr, ptr, ...) @PyArg_ParseTuple(ptr noundef %13, ptr noundef @.str.605, ptr noundef %7, ptr noundef %9)
  %15 = icmp ne i32 %14, 0
  br i1 %15, label %17, label %16

16:                                               ; preds = %2
  store ptr null, ptr %3, align 8
  store i32 1, ptr %11, align 4
  br label %48

17:                                               ; preds = %2
  %18 = load i64, ptr %7, align 8, !tbaa !52
  %19 = icmp slt i64 %18, 0
  br i1 %19, label %20, label %22

20:                                               ; preds = %17
  %21 = load ptr, ptr @PyExc_ValueError, align 8, !tbaa !3
  call void @PyErr_SetString(ptr noundef %21, ptr noundef @.str.606)
  store ptr null, ptr %3, align 8
  store i32 1, ptr %11, align 4
  br label %48

22:                                               ; preds = %17
  %23 = load i64, ptr %7, align 8, !tbaa !52
  %24 = call ptr @PyBytes_FromStringAndSize(ptr noundef null, i64 noundef %23)
  store ptr %24, ptr %10, align 8, !tbaa !3
  %25 = load ptr, ptr %10, align 8, !tbaa !3
  %26 = icmp eq ptr %25, null
  br i1 %26, label %27, label %28

27:                                               ; preds = %22
  store ptr null, ptr %3, align 8
  store i32 1, ptr %11, align 4
  br label %48

28:                                               ; preds = %22
  %29 = load ptr, ptr %6, align 8, !tbaa !8
  %30 = load ptr, ptr %10, align 8, !tbaa !3
  %31 = call ptr @PyBytes_AS_STRING(ptr noundef %30)
  %32 = load i64, ptr %7, align 8, !tbaa !52
  %33 = load i32, ptr %9, align 4, !tbaa !15
  %34 = call i64 @sock_recv_guts(ptr noundef %29, ptr noundef %31, i64 noundef %32, i32 noundef %33)
  store i64 %34, ptr %8, align 8, !tbaa !52
  %35 = load i64, ptr %8, align 8, !tbaa !52
  %36 = icmp slt i64 %35, 0
  br i1 %36, label %37, label %39

37:                                               ; preds = %28
  %38 = load ptr, ptr %10, align 8, !tbaa !3
  call void @Py_DECREF(ptr noundef %38)
  store ptr null, ptr %3, align 8
  store i32 1, ptr %11, align 4
  br label %48

39:                                               ; preds = %28
  %40 = load i64, ptr %8, align 8, !tbaa !52
  %41 = load i64, ptr %7, align 8, !tbaa !52
  %42 = icmp ne i64 %40, %41
  br i1 %42, label %43, label %46

43:                                               ; preds = %39
  %44 = load i64, ptr %8, align 8, !tbaa !52
  %45 = call i32 @_PyBytes_Resize(ptr noundef %10, i64 noundef %44)
  br label %46

46:                                               ; preds = %43, %39
  %47 = load ptr, ptr %10, align 8, !tbaa !3
  store ptr %47, ptr %3, align 8
  store i32 1, ptr %11, align 4
  br label %48

48:                                               ; preds = %46, %37, %27, %20, %16
  call void @llvm.lifetime.end.p0(i64 8, ptr %10) #10
  call void @llvm.lifetime.end.p0(i64 4, ptr %9) #10
  call void @llvm.lifetime.end.p0(i64 8, ptr %8) #10
  call void @llvm.lifetime.end.p0(i64 8, ptr %7) #10
  call void @llvm.lifetime.end.p0(i64 8, ptr %6) #10
  %49 = load ptr, ptr %3, align 8
  ret ptr %49
}