; Function Attrs: nounwind uwtable
define internal ptr @sock_recv(ptr noundef %0, ptr noundef %1) #0 {
  %3 = alloca %struct.sock_recv, align 8
  %4 = alloca i64, align 8
  %5 = alloca i32, align 4
  %6 = alloca ptr, align 8
  call void @llvm.lifetime.start.p0(i64 8, ptr nonnull %4) #13
  call void @llvm.lifetime.start.p0(i64 4, ptr nonnull %5) #13
  store i32 0, ptr %5, align 4, !tbaa !35
  call void @llvm.lifetime.start.p0(i64 8, ptr nonnull %6) #13
  %7 = call i32 (ptr, ptr, ...) @PyArg_ParseTuple(ptr noundef %1, ptr noundef nonnull @.str.605, ptr noundef nonnull %4, ptr noundef nonnull %5) #13
  %.not = icmp eq i32 %7, 0
  br i1 %.not, label %Py_DECREF.exit, label %8

8:                                                ; preds = %2
  %9 = load i64, ptr %4, align 8, !tbaa !47
  %10 = icmp slt i64 %9, 0
  br i1 %10, label %11, label %13

11:                                               ; preds = %8
  %12 = load ptr, ptr @PyExc_ValueError, align 8, !tbaa !19
  call void @PyErr_SetString(ptr noundef %12, ptr noundef nonnull @.str.606) #13
  br label %Py_DECREF.exit

13:                                               ; preds = %8
  %14 = call ptr @PyBytes_FromStringAndSize(ptr noundef null, i64 noundef %9) #13
  store ptr %14, ptr %6, align 8, !tbaa !19
  %15 = icmp eq ptr %14, null
  br i1 %15, label %Py_DECREF.exit, label %16

16:                                               ; preds = %13
  %17 = load i64, ptr %4, align 8, !tbaa !47
  %18 = load i32, ptr %5, align 4, !tbaa !35
  call void @llvm.lifetime.start.p0(i64 32, ptr nonnull %3) #13
  %19 = icmp eq i64 %17, 0
  br i1 %19, label %.thread, label %20

.thread:                                          ; preds = %16
  call void @llvm.lifetime.end.p0(i64 32, ptr nonnull %3) #13
  br label %Py_DECREF.exit

20:                                               ; preds = %16
  %21 = getelementptr inbounds nuw i8, ptr %14, i64 32
  store ptr %21, ptr %3, align 8, !tbaa !139
  %22 = getelementptr inbounds nuw i8, ptr %3, i64 8
  store i64 %17, ptr %22, align 8, !tbaa !141
  %23 = getelementptr inbounds nuw i8, ptr %3, i64 16
  store i32 %18, ptr %23, align 8, !tbaa !142
  %24 = getelementptr inbounds nuw i8, ptr %0, i64 40
  %25 = load i64, ptr %24, align 8, !tbaa !90
  %26 = call fastcc range(i32 -1, 1) i32 @sock_call_ex(ptr noundef %0, i32 noundef 0, ptr noundef nonnull @sock_recv_impl, ptr noundef nonnull %3, i32 noundef 0, ptr noundef null, i64 noundef %25)
  %27 = icmp slt i32 %26, 0
  br i1 %27, label %sock_recv_guts.exit.thread, label %sock_recv_guts.exit

sock_recv_guts.exit.thread:                       ; preds = %20
  call void @llvm.lifetime.end.p0(i64 32, ptr nonnull %3) #13
  br label %31

sock_recv_guts.exit:                              ; preds = %20
  %28 = getelementptr inbounds nuw i8, ptr %3, i64 24
  %29 = load i64, ptr %28, align 8, !tbaa !143
  call void @llvm.lifetime.end.p0(i64 32, ptr nonnull %3) #13
  %30 = icmp slt i64 %29, 0
  br i1 %30, label %31, label %37

31:                                               ; preds = %sock_recv_guts.exit.thread, %sock_recv_guts.exit
  %32 = load i32, ptr %14, align 8, !tbaa !18
  %.not.i = icmp sgt i32 %32, -1
  br i1 %.not.i, label %33, label %Py_DECREF.exit

33:                                               ; preds = %31
  %34 = add nsw i32 %32, -1
  store i32 %34, ptr %14, align 8, !tbaa !18
  %35 = icmp eq i32 %34, 0
  br i1 %35, label %36, label %Py_DECREF.exit

36:                                               ; preds = %33
  call void @_Py_Dealloc(ptr noundef nonnull %14) #13
  br label %Py_DECREF.exit

37:                                               ; preds = %sock_recv_guts.exit
  %.pre = load i64, ptr %4, align 8, !tbaa !47
  %.not9 = icmp eq i64 %29, %.pre
  br i1 %.not9, label %Py_DECREF.exit, label %38

38:                                               ; preds = %37
  %39 = call i32 @_PyBytes_Resize(ptr noundef nonnull %6, i64 noundef %29) #13
  %.pre14 = load ptr, ptr %6, align 8, !tbaa !19
  br label %Py_DECREF.exit

Py_DECREF.exit:                                   ; preds = %37, %38, %.thread, %36, %33, %31, %13, %2, %11
  %.0 = phi ptr [ null, %11 ], [ null, %2 ], [ null, %13 ], [ null, %31 ], [ null, %33 ], [ null, %36 ], [ %.pre14, %38 ], [ %14, %37 ], [ %14, %.thread ]
  call void @llvm.lifetime.end.p0(i64 8, ptr nonnull %6) #13
  call void @llvm.lifetime.end.p0(i64 4, ptr nonnull %5) #13
  call void @llvm.lifetime.end.p0(i64 8, ptr nonnull %4) #13
  ret ptr %.0
}